; Function Attrs: mustprogress uwtable
define hidden noundef ptr @_ZN3smt17theory_array_base10mk_defaultEP4expr(ptr nocapture noundef nonnull readonly align 8 dereferenceable(249) %this, ptr noundef nonnull %a) local_unnamed_addr #3 align 2 {
entry:
  %a.addr = alloca ptr, align 8
  store ptr %a, ptr %a.addr, align 8
  %call = tail call noundef ptr @_ZNK4expr8get_sortEv(ptr noundef nonnull align 4 dereferenceable(16) %a)
  %m_info.i.i = getelementptr inbounds i8, ptr %call, i64 24
  %0 = load ptr, ptr %m_info.i.i, align 8
  %m_parameters.i.i = getelementptr inbounds i8, ptr %0, i64 8
  %1 = load ptr, ptr %m_parameters.i.i, align 8
  %cmp.i.i.i = icmp eq ptr %1, null
  br i1 %cmp.i.i.i, label %_ZNK3smt17theory_array_base13get_dimensionEP4sort.exit, label %if.end.i.i.i

if.end.i.i.i:                                     ; preds = %entry
  %arrayidx.i.i.i = getelementptr inbounds i8, ptr %1, i64 -4
  %2 = load i32, ptr %arrayidx.i.i.i, align 4
  %3 = add i32 %2, -1
  br label %_ZNK3smt17theory_array_base13get_dimensionEP4sort.exit

_ZNK3smt17theory_array_base13get_dimensionEP4sort.exit: ; preds = %entry, %if.end.i.i.i
  %retval.0.i.i.i = phi i32 [ %3, %if.end.i.i.i ], [ -1, %entry ]
  %m = getelementptr inbounds i8, ptr %this, i64 24
  %4 = load ptr, ptr %m, align 8
  %m_id.i = getelementptr inbounds i8, ptr %this, i64 8
  %5 = load i32, ptr %m_id.i, align 8
  %call6 = call noundef ptr @_ZN11ast_manager6mk_appEiijPK9parameterjPKP4exprP4sort(ptr noundef nonnull align 8 dereferenceable(976) %4, i32 noundef %5, i32 noundef 4, i32 noundef %retval.0.i.i.i, ptr noundef %1, i32 noundef 1, ptr noundef nonnull %a.addr, ptr noundef null)
  ret ptr %call6
}